target datalayout = "e-m:e-p270:32:32-p271:32:32-p272:64:64-i64:64-i128:128-f80:128-n8:16:32:64-S128"
target triple = "x86_64-pc-linux-gnu"

%struct.PROPERTY_STRING_DATA = type { ptr, ptr, ptr, i32, i32, ptr, ptr }

@.str = private unnamed_addr constant [45 x i8] c"../openssl/crypto/property/property_string.c\00", align 1

; Function Attrs: inlinehint nounwind uwtable
define internal ptr @lh_PROPERTY_STRING_new(ptr noundef %0, ptr noundef %1) #3 {
  %3 = alloca ptr, align 8
  %4 = alloca ptr, align 8
  store ptr %0, ptr %3, align 8, !tbaa !3
  store ptr %1, ptr %4, align 8, !tbaa !3
  %5 = load ptr, ptr %3, align 8, !tbaa !3
  %6 = load ptr, ptr %4, align 8, !tbaa !3
  %7 = call ptr @OPENSSL_LH_new(ptr noundef %5, ptr noundef %6)
  %8 = call ptr @OPENSSL_LH_set_thunks(ptr noundef %7, ptr noundef @lh_PROPERTY_STRING_hfn_thunk, ptr noundef @lh_PROPERTY_STRING_cfn_thunk, ptr noundef @lh_PROPERTY_STRING_doall_thunk, ptr noundef @lh_PROPERTY_STRING_doall_arg_thunk)
  ret ptr %8
}

; Function Attrs: nounwind uwtable
define ptr @ossl_property_string_data_new(ptr noundef %0) #0 {
  %2 = alloca ptr, align 8
  %3 = alloca ptr, align 8
  %4 = alloca ptr, align 8
  %5 = alloca i32, align 4
  store ptr %0, ptr %3, align 8, !tbaa !20
  call void @llvm.lifetime.start.p0(i64 8, ptr %4) #6
  %6 = call noalias ptr @CRYPTO_zalloc(i64 noundef 48, ptr noundef @.str, i32 noundef 97)
  store ptr %6, ptr %4, align 8, !tbaa !3
  %7 = load ptr, ptr %4, align 8, !tbaa !3
  %8 = icmp eq ptr %7, null
  br i1 %8, label %9, label %10

9:                                                ; preds = %1
  store ptr null, ptr %2, align 8
  store i32 1, ptr %5, align 4
  br label %54

10:                                               ; preds = %1
  %11 = call ptr @CRYPTO_THREAD_lock_new()
  %12 = load ptr, ptr %4, align 8, !tbaa !3
  %13 = getelementptr inbounds nuw %struct.PROPERTY_STRING_DATA, ptr %12, i32 0, i32 0
  store ptr %11, ptr %13, align 8, !tbaa !7
  %14 = call ptr @lh_PROPERTY_STRING_new(ptr noundef @property_hash, ptr noundef @property_cmp)
  %15 = load ptr, ptr %4, align 8, !tbaa !3
  %16 = getelementptr inbounds nuw %struct.PROPERTY_STRING_DATA, ptr %15, i32 0, i32 1
  store ptr %14, ptr %16, align 8, !tbaa !22
  %17 = call ptr @lh_PROPERTY_STRING_new(ptr noundef @property_hash, ptr noundef @property_cmp)
  %18 = load ptr, ptr %4, align 8, !tbaa !3
  %19 = getelementptr inbounds nuw %struct.PROPERTY_STRING_DATA, ptr %18, i32 0, i32 2
  store ptr %17, ptr %19, align 8, !tbaa !23
  %20 = call ptr @OPENSSL_sk_new_null()
  %21 = load ptr, ptr %4, align 8, !tbaa !3
  %22 = getelementptr inbounds nuw %struct.PROPERTY_STRING_DATA, ptr %21, i32 0, i32 5
  store ptr %20, ptr %22, align 8, !tbaa !12
  %23 = call ptr @OPENSSL_sk_new_null()
  %24 = load ptr, ptr %4, align 8, !tbaa !3
  %25 = getelementptr inbounds nuw %struct.PROPERTY_STRING_DATA, ptr %24, i32 0, i32 6
  store ptr %23, ptr %25, align 8, !tbaa !13
  %26 = load ptr, ptr %4, align 8, !tbaa !3
  %27 = getelementptr inbounds nuw %struct.PROPERTY_STRING_DATA, ptr %26, i32 0, i32 0
  %28 = load ptr, ptr %27, align 8, !tbaa !7
  %29 = icmp eq ptr %28, null
  br i1 %29, label %50, label %30

30:                                               ; preds = %10
  %31 = load ptr, ptr %4, align 8, !tbaa !3
  %32 = getelementptr inbounds nuw %struct.PROPERTY_STRING_DATA, ptr %31, i32 0, i32 5
  %33 = load ptr, ptr %32, align 8, !tbaa !12
  %34 = icmp eq ptr %33, null
  br i1 %34, label %50, label %35

35:                                               ; preds = %30
  %36 = load ptr, ptr %4, align 8, !tbaa !3
  %37 = getelementptr inbounds nuw %struct.PROPERTY_STRING_DATA, ptr %36, i32 0, i32 6
  %38 = load ptr, ptr %37, align 8, !tbaa !13
  %39 = icmp eq ptr %38, null
  br i1 %39, label %50, label %40

40:                                               ; preds = %35
  %41 = load ptr, ptr %4, align 8, !tbaa !3
  %42 = getelementptr inbounds nuw %struct.PROPERTY_STRING_DATA, ptr %41, i32 0, i32 1
  %43 = load ptr, ptr %42, align 8, !tbaa !22
  %44 = icmp eq ptr %43, null
  br i1 %44, label %50, label %45

45:                                               ; preds = %40
  %46 = load ptr, ptr %4, align 8, !tbaa !3
  %47 = getelementptr inbounds nuw %struct.PROPERTY_STRING_DATA, ptr %46, i32 0, i32 2
  %48 = load ptr, ptr %47, align 8, !tbaa !23
  %49 = icmp eq ptr %48, null
  br i1 %49, label %50, label %52

50:                                               ; preds = %45, %40, %35, %30, %10
  %51 = load ptr, ptr %4, align 8, !tbaa !3
  call void @ossl_property_string_data_free(ptr noundef %51)
  store ptr null, ptr %2, align 8
  store i32 1, ptr %5, align 4
  br label %54

52:                                               ; preds = %45
  %53 = load ptr, ptr %4, align 8, !tbaa !3
  store ptr %53, ptr %2, align 8
  store i32 1, ptr %5, align 4
  br label %54

54:                                               ; preds = %52, %50, %9
  call void @llvm.lifetime.end.p0(i64 8, ptr %4) #6
  %55 = load ptr, ptr %2, align 8
  ret ptr %55
}