; Function Attrs: nounwind uwtable
define ptr @ossl_property_string_data_new(ptr noundef readnone captures(none) %0) local_unnamed_addr #0 {
  %2 = tail call noalias ptr @CRYPTO_zalloc(i64 noundef 48, ptr noundef nonnull @.str, i32 noundef 97) #8
  %3 = icmp eq ptr %2, null
  br i1 %3, label %23, label %4

4:                                                ; preds = %1
  %5 = tail call ptr @CRYPTO_THREAD_lock_new() #8
  store ptr %5, ptr %2, align 8, !tbaa !3
  %6 = tail call ptr @OPENSSL_LH_new(ptr noundef nonnull @property_hash, ptr noundef nonnull @property_cmp) #8
  %7 = tail call ptr @OPENSSL_LH_set_thunks(ptr noundef %6, ptr noundef nonnull @lh_PROPERTY_STRING_hfn_thunk, ptr noundef nonnull @lh_PROPERTY_STRING_cfn_thunk, ptr noundef nonnull @lh_PROPERTY_STRING_doall_thunk, ptr noundef nonnull @lh_PROPERTY_STRING_doall_arg_thunk) #8
  %8 = getelementptr inbounds nuw i8, ptr %2, i64 8
  store ptr %7, ptr %8, align 8, !tbaa !14
  %9 = tail call ptr @OPENSSL_LH_new(ptr noundef nonnull @property_hash, ptr noundef nonnull @property_cmp) #8
  %10 = tail call ptr @OPENSSL_LH_set_thunks(ptr noundef %9, ptr noundef nonnull @lh_PROPERTY_STRING_hfn_thunk, ptr noundef nonnull @lh_PROPERTY_STRING_cfn_thunk, ptr noundef nonnull @lh_PROPERTY_STRING_doall_thunk, ptr noundef nonnull @lh_PROPERTY_STRING_doall_arg_thunk) #8
  %11 = getelementptr inbounds nuw i8, ptr %2, i64 16
  store ptr %10, ptr %11, align 8, !tbaa !15
  %12 = tail call ptr @OPENSSL_sk_new_null() #8
  %13 = getelementptr inbounds nuw i8, ptr %2, i64 32
  store ptr %12, ptr %13, align 8, !tbaa !12
  %14 = tail call ptr @OPENSSL_sk_new_null() #8
  %15 = getelementptr inbounds nuw i8, ptr %2, i64 40
  store ptr %14, ptr %15, align 8, !tbaa !13
  %16 = icmp eq ptr %5, null
  br i1 %16, label %22, label %17

17:                                               ; preds = %4
  %18 = icmp eq ptr %12, null
  %19 = icmp eq ptr %14, null
  %or.cond = select i1 %18, i1 true, i1 %19
  %20 = icmp eq ptr %7, null
  %or.cond15 = select i1 %or.cond, i1 true, i1 %20
  %21 = icmp eq ptr %10, null
  %or.cond16 = select i1 %or.cond15, i1 true, i1 %21
  br i1 %or.cond16, label %22, label %23

22:                                               ; preds = %17, %4
  tail call void @ossl_property_string_data_free(ptr noundef nonnull %2)
  br label %23

23:                                               ; preds = %17, %1, %22
  %.0 = phi ptr [ null, %22 ], [ null, %1 ], [ %2, %17 ]
  ret ptr %.0
}